; ModuleID = 'bench/boost/original/cstdlib.ll'
source_filename = "bench/boost/original/cstdlib.ll"
target datalayout = "e-m:e-p270:32:32-p271:32:32-p272:64:64-i64:64-i128:128-f80:128-n8:16:32:64-S128"
target triple = "x86_64-pc-linux-gnu"

; Function Attrs: mustprogress nounwind uwtable
define noundef i32 @_ZN5boost6nowide6setenvEPKcS2_i(ptr noundef %0, ptr noundef %1, i32 noundef %2) local_unnamed_addr #0 {
  %4 = tail call i32 @setenv(ptr noundef %0, ptr noundef %1, i32 noundef %2) #4
  ret i32 %4
}

; Function Attrs: nounwind
declare i32 @setenv(ptr noundef, ptr noundef, i32 noundef) local_unnamed_addr #1

; Function Attrs: mustprogress nofree nounwind uwtable
define noundef i32 @_ZN5boost6nowide8unsetenvEPKc(ptr nocapture noundef readonly %0) local_unnamed_addr #2 {
  %2 = tail call i32 @unsetenv(ptr noundef %0) #4
  ret i32 %2
}

; Function Attrs: nofree nounwind
declare noundef i32 @unsetenv(ptr nocapture noundef readonly) local_unnamed_addr #3

; Function Attrs: mustprogress nounwind uwtable
define noundef i32 @_ZN5boost6nowide6putenvEPc(ptr noundef %0) local_unnamed_addr #0 {
  %2 = tail call i32 @putenv(ptr noundef %0) #4
  ret i32 %2
}

; Function Attrs: nounwind
declare i32 @putenv(ptr noundef) local_unnamed_addr #1


!llvm.module.flags = !{!0, !1, !2}

!0 = !{i32 1, !"wchar_size", i32 4}
!1 = !{i32 8, !"PIC Level", i32 2}
!2 = !{i32 7, !"uwtable", i32 2}
